target datalayout = "e-m:e-p270:32:32-p271:32:32-p272:64:64-i64:64-i128:128-f80:128-n8:16:32:64-S128"
target triple = "x86_64-pc-linux-gnu"

%"class.pxrInternal_v0_24__pxrReserved__::PcpNodeRef" = type { ptr, i64 }
%"class.pxrInternal_v0_24__pxrReserved__::PcpPrimIndex_Graph" = type <{ %"class.pxrInternal_v0_24__pxrReserved__::TfSimpleRefBase.base", [4 x i8], %"class.std::shared_ptr", %"class.std::vector", i8, [7 x i8] }>
%"class.pxrInternal_v0_24__pxrReserved__::TfSimpleRefBase.base" = type { %"class.pxrInternal_v0_24__pxrReserved__::TfRefBase.base" }
%"class.pxrInternal_v0_24__pxrReserved__::TfRefBase.base" = type <{ ptr, %"struct.std::atomic" }>
%"struct.std::atomic" = type { %"struct.std::__atomic_base" }
%"struct.std::__atomic_base" = type { i32 }
%"class.std::shared_ptr" = type { %"class.std::__shared_ptr" }
%"class.std::__shared_ptr" = type { ptr, %"class.std::__shared_count" }
%"class.std::__shared_count" = type { ptr }
%"class.std::vector" = type { %"struct.std::_Vector_base" }
%"struct.std::_Vector_base" = type { %"struct.std::_Vector_base<pxrInternal_v0_24__pxrReserved__::PcpPrimIndex_Graph::_UnsharedData, std::allocator<pxrInternal_v0_24__pxrReserved__::PcpPrimIndex_Graph::_UnsharedData>>::_Vector_impl" }
%"struct.std::_Vector_base<pxrInternal_v0_24__pxrReserved__::PcpPrimIndex_Graph::_UnsharedData, std::allocator<pxrInternal_v0_24__pxrReserved__::PcpPrimIndex_Graph::_UnsharedData>>::_Vector_impl" = type { %"struct.std::_Vector_base<pxrInternal_v0_24__pxrReserved__::PcpPrimIndex_Graph::_UnsharedData, std::allocator<pxrInternal_v0_24__pxrReserved__::PcpPrimIndex_Graph::_UnsharedData>>::_Vector_impl_data" }
%"struct.std::_Vector_base<pxrInternal_v0_24__pxrReserved__::PcpPrimIndex_Graph::_UnsharedData, std::allocator<pxrInternal_v0_24__pxrReserved__::PcpPrimIndex_Graph::_UnsharedData>>::_Vector_impl_data" = type { ptr, ptr, ptr }
%"struct.pxrInternal_v0_24__pxrReserved__::PcpPrimIndex_Graph::_UnsharedData" = type <{ %"class.pxrInternal_v0_24__pxrReserved__::SdfPath", i16, i8, i8 }>
%"class.pxrInternal_v0_24__pxrReserved__::SdfPath" = type { %"struct.pxrInternal_v0_24__pxrReserved__::Sdf_PathNodeHandleImpl", %"struct.pxrInternal_v0_24__pxrReserved__::Sdf_PathNodeHandleImpl.1" }
%"struct.pxrInternal_v0_24__pxrReserved__::Sdf_PathNodeHandleImpl" = type { %"struct.pxrInternal_v0_24__pxrReserved__::Sdf_Pool<pxrInternal_v0_24__pxrReserved__::Sdf_PathPrimTag, 24, 8>::Handle" }
%"struct.pxrInternal_v0_24__pxrReserved__::Sdf_Pool<pxrInternal_v0_24__pxrReserved__::Sdf_PathPrimTag, 24, 8>::Handle" = type { i32 }
%"struct.pxrInternal_v0_24__pxrReserved__::Sdf_PathNodeHandleImpl.1" = type { %"struct.pxrInternal_v0_24__pxrReserved__::Sdf_Pool<pxrInternal_v0_24__pxrReserved__::Sdf_PathPropTag, 24, 8>::Handle" }
%"struct.pxrInternal_v0_24__pxrReserved__::Sdf_Pool<pxrInternal_v0_24__pxrReserved__::Sdf_PathPropTag, 24, 8>::Handle" = type { i32 }

; Function Attrs: mustprogress nounwind uwtable
define linkonce_odr noundef nonnull align 4 dereferenceable(11) ptr @_ZNSt6vectorIN32pxrInternal_v0_24__pxrReserved__18PcpPrimIndex_Graph13_UnsharedDataESaIS2_EEixEm(ptr noundef nonnull align 8 dereferenceable(24) %0, i64 noundef %1) #0 comdat align 2 {
  %3 = alloca ptr, align 8
  %4 = alloca i64, align 8
  store ptr %0, ptr %3, align 8
  store i64 %1, ptr %4, align 8
  %5 = load ptr, ptr %3, align 8
  %6 = getelementptr inbounds nuw %"struct.std::_Vector_base", ptr %5, i32 0, i32 0
  %7 = getelementptr inbounds nuw %"struct.std::_Vector_base<pxrInternal_v0_24__pxrReserved__::PcpPrimIndex_Graph::_UnsharedData, std::allocator<pxrInternal_v0_24__pxrReserved__::PcpPrimIndex_Graph::_UnsharedData>>::_Vector_impl_data", ptr %6, i32 0, i32 0
  %8 = load ptr, ptr %7, align 8
  %9 = load i64, ptr %4, align 8
  %10 = getelementptr inbounds %"struct.pxrInternal_v0_24__pxrReserved__::PcpPrimIndex_Graph::_UnsharedData", ptr %8, i64 %9
  ret ptr %10
}

; Function Attrs: mustprogress nounwind uwtable
define void @_ZN32pxrInternal_v0_24__pxrReserved__10PcpNodeRef34SetSpecContributionRestrictedDepthEm(ptr noundef nonnull align 8 dereferenceable(16) %0, i64 noundef %1) #0 align 2 {
  %3 = alloca ptr, align 8
  %4 = alloca i64, align 8
  store ptr %0, ptr %3, align 8
  store i64 %1, ptr %4, align 8
  %5 = load ptr, ptr %3, align 8
  %6 = load i64, ptr %4, align 8
  %7 = trunc i64 %6 to i16
  %8 = getelementptr inbounds nuw %"class.pxrInternal_v0_24__pxrReserved__::PcpNodeRef", ptr %5, i32 0, i32 0
  %9 = load ptr, ptr %8, align 8
  %10 = getelementptr inbounds nuw %"class.pxrInternal_v0_24__pxrReserved__::PcpPrimIndex_Graph", ptr %9, i32 0, i32 3
  %11 = getelementptr inbounds nuw %"class.pxrInternal_v0_24__pxrReserved__::PcpNodeRef", ptr %5, i32 0, i32 1
  %12 = load i64, ptr %11, align 8
  %13 = call noundef nonnull align 4 dereferenceable(11) ptr @_ZNSt6vectorIN32pxrInternal_v0_24__pxrReserved__18PcpPrimIndex_Graph13_UnsharedDataESaIS2_EEixEm(ptr noundef nonnull align 8 dereferenceable(24) %10, i64 noundef %12) #8
  %14 = getelementptr inbounds nuw %"struct.pxrInternal_v0_24__pxrReserved__::PcpPrimIndex_Graph::_UnsharedData", ptr %13, i32 0, i32 1
  store i16 %7, ptr %14, align 4
  ret void
}